target datalayout = "e-m:e-p270:32:32-p271:32:32-p272:64:64-i64:64-i128:128-f80:128-n8:16:32:64-S128"
target triple = "x86_64-pc-linux-gnu"

%struct.PgStat_SLRUStats = type { i64, i64, i64, i64, i64, i64, i64, i64 }

@have_slrustats = internal global i8 0, align 1
@pending_SLRUStats = internal global [8 x %struct.PgStat_SLRUStats] zeroinitializer, align 16

; Function Attrs: inlinehint nounwind uwtable
define internal ptr @get_slru_entry(i32 noundef %0) #3 {
  %2 = alloca i32, align 4
  store i32 %0, ptr %2, align 4
  store i8 1, ptr @have_slrustats, align 1
  %3 = load i32, ptr %2, align 4
  %4 = sext i32 %3 to i64
  %5 = getelementptr inbounds [8 x %struct.PgStat_SLRUStats], ptr @pending_SLRUStats, i64 0, i64 %4
  ret ptr %5
}

; Function Attrs: nounwind uwtable
define dso_local void @pgstat_count_slru_page_zeroed(i32 noundef %0) #0 {
  %2 = alloca i32, align 4
  store i32 %0, ptr %2, align 4
  %3 = load i32, ptr %2, align 4
  %4 = call ptr @get_slru_entry(i32 noundef %3)
  %5 = getelementptr inbounds nuw %struct.PgStat_SLRUStats, ptr %4, i32 0, i32 0
  %6 = load i64, ptr %5, align 8
  %7 = add i64 %6, 1
  store i64 %7, ptr %5, align 8
  ret void
}